; Function Attrs: mustprogress nofree norecurse nosync nounwind memory(argmem: readwrite) uwtable
define dso_local void @_ZN12CVQualifiers17remove_qualifiersEi(ptr nocapture noundef nonnull align 8 dereferenceable(96) %0, i32 noundef %1) local_unnamed_addr #8 align 2 {
  %3 = icmp sgt i32 %1, 0
  br i1 %3, label %.lr.ph, label %26

.lr.ph:                                           ; preds = %2
  %4 = getelementptr inbounds i8, ptr %0, i64 40
  %5 = getelementptr inbounds i8, ptr %0, i64 32
  %6 = getelementptr inbounds i8, ptr %0, i64 80
  %7 = getelementptr inbounds i8, ptr %0, i64 72
  %.promoted = load i32, ptr %4, align 8
  %.promoted5 = load ptr, ptr %5, align 8
  %.promoted6 = load i32, ptr %6, align 8
  %.promoted8 = load ptr, ptr %7, align 8
  br label %8

8:                                                ; preds = %.lr.ph, %_ZNSt6vectorIbSaIbEE8pop_backEv.exit3
  %9 = phi ptr [ %.promoted8, %.lr.ph ], [ %23, %_ZNSt6vectorIbSaIbEE8pop_backEv.exit3 ]
  %10 = phi i32 [ %.promoted6, %.lr.ph ], [ %24, %_ZNSt6vectorIbSaIbEE8pop_backEv.exit3 ]
  %11 = phi ptr [ %.promoted5, %.lr.ph ], [ %17, %_ZNSt6vectorIbSaIbEE8pop_backEv.exit3 ]
  %12 = phi i32 [ %.promoted, %.lr.ph ], [ %18, %_ZNSt6vectorIbSaIbEE8pop_backEv.exit3 ]
  %.04 = phi i32 [ 0, %.lr.ph ], [ %25, %_ZNSt6vectorIbSaIbEE8pop_backEv.exit3 ]
  %13 = add i32 %12, -1
  %14 = icmp eq i32 %12, 0
  br i1 %14, label %15, label %_ZNSt6vectorIbSaIbEE8pop_backEv.exit

15:                                               ; preds = %8
  %16 = getelementptr inbounds i8, ptr %11, i64 -8
  store ptr %16, ptr %5, align 8
  br label %_ZNSt6vectorIbSaIbEE8pop_backEv.exit

_ZNSt6vectorIbSaIbEE8pop_backEv.exit:             ; preds = %8, %15
  %17 = phi ptr [ %11, %8 ], [ %16, %15 ]
  %18 = phi i32 [ %13, %8 ], [ 63, %15 ]
  %19 = add i32 %10, -1
  %20 = icmp eq i32 %10, 0
  br i1 %20, label %21, label %_ZNSt6vectorIbSaIbEE8pop_backEv.exit3

21:                                               ; preds = %_ZNSt6vectorIbSaIbEE8pop_backEv.exit
  %22 = getelementptr inbounds i8, ptr %9, i64 -8
  store ptr %22, ptr %7, align 8
  br label %_ZNSt6vectorIbSaIbEE8pop_backEv.exit3

_ZNSt6vectorIbSaIbEE8pop_backEv.exit3:            ; preds = %_ZNSt6vectorIbSaIbEE8pop_backEv.exit, %21
  %23 = phi ptr [ %9, %_ZNSt6vectorIbSaIbEE8pop_backEv.exit ], [ %22, %21 ]
  %24 = phi i32 [ %19, %_ZNSt6vectorIbSaIbEE8pop_backEv.exit ], [ 63, %21 ]
  %25 = add nuw nsw i32 %.04, 1
  %exitcond.not = icmp eq i32 %25, %1
  br i1 %exitcond.not, label %._crit_edge, label %8, !llvm.loop !10

._crit_edge:                                      ; preds = %_ZNSt6vectorIbSaIbEE8pop_backEv.exit3
  store i32 %18, ptr %4, align 8
  store i32 %24, ptr %6, align 8
  br label %26

26:                                               ; preds = %._crit_edge, %2
  ret void
}